target datalayout = "e-m:e-p270:32:32-p271:32:32-p272:64:64-i64:64-i128:128-f80:128-n8:16:32:64-S128"
target triple = "x86_64-pc-linux-gnu"

%"class.llvm::TargetRegisterClass" = type { ptr, ptr, ptr, %"struct.llvm::LaneBitmask", i8, i8, i8, i8, i8, ptr, ptr }
%"struct.llvm::LaneBitmask" = type { i64 }
%"class.llvm::Register" = type { i32 }
%"class.llvm::MVT" = type { i16 }

@_ZZN12_GLOBAL__N_115AArch64FastISel16emitLogicalOp_riEjN4llvm3MVTEjmE8OpcTable = internal constant [3 x [2 x i32]] [[2 x i32] [i32 1550, i32 1552], [2 x i32] [i32 4874, i32 4876], [2 x i32] [i32 2324, i32 2326]], align 16
@_ZN4llvm7AArch6415GPR32spRegClassE = external global %"class.llvm::TargetRegisterClass", align 8
@_ZN4llvm7AArch6415GPR64spRegClassE = external global %"class.llvm::TargetRegisterClass", align 8

; Function Attrs: mustprogress nounwind uwtable
define linkonce_odr hidden void @_ZN4llvm8RegisterC2Ej(ptr noundef nonnull align 4 dereferenceable(4) %0, i32 noundef %1) unnamed_addr #0 comdat align 2 {
  %3 = alloca ptr, align 8
  %4 = alloca i32, align 4
  store ptr %0, ptr %3, align 8
  store i32 %1, ptr %4, align 4
  %5 = load ptr, ptr %3, align 8
  %6 = getelementptr inbounds nuw %"class.llvm::Register", ptr %5, i32 0, i32 0
  %7 = load i32, ptr %4, align 4
  store i32 %7, ptr %6, align 4
  ret void
}

; Function Attrs: mustprogress nounwind uwtable
define internal noundef i32 @_ZN12_GLOBAL__N_115AArch64FastISel10emitAnd_riEN4llvm3MVTEjm(ptr noundef nonnull align 8 dereferenceable(192) %0, i16 %1, i32 noundef %2, i64 noundef %3) #0 align 2 {
  %5 = alloca %"class.llvm::MVT", align 2
  %6 = alloca ptr, align 8
  %7 = alloca i32, align 4
  %8 = alloca i64, align 8
  %9 = alloca %"class.llvm::MVT", align 2
  %10 = getelementptr inbounds nuw %"class.llvm::MVT", ptr %5, i32 0, i32 0
  store i16 %1, ptr %10, align 2
  store ptr %0, ptr %6, align 8
  store i32 %2, ptr %7, align 4
  store i64 %3, ptr %8, align 8
  %11 = load ptr, ptr %6, align 8
  call void @llvm.memcpy.p0.p0.i64(ptr align 2 %9, ptr align 2 %5, i64 2, i1 false)
  %12 = load i32, ptr %7, align 4
  %13 = load i64, ptr %8, align 8
  %14 = getelementptr inbounds nuw %"class.llvm::MVT", ptr %9, i32 0, i32 0
  %15 = load i16, ptr %14, align 2
  %16 = call noundef i32 @_ZN12_GLOBAL__N_115AArch64FastISel16emitLogicalOp_riEjN4llvm3MVTEjm(ptr noundef nonnull align 8 dereferenceable(192) %11, i32 noundef 185, i16 %15, i32 noundef %12, i64 noundef %13)
  ret i32 %16
}

; Function Attrs: mustprogress nounwind uwtable
define linkonce_odr hidden noundef i32 @_ZNK4llvm8RegistercvjEv(ptr noundef nonnull align 4 dereferenceable(4) %0) #0 comdat align 2 {
  %2 = alloca ptr, align 8
  store ptr %0, ptr %2, align 8
  %3 = load ptr, ptr %2, align 8
  %4 = getelementptr inbounds nuw %"class.llvm::Register", ptr %3, i32 0, i32 0
  %5 = load i32, ptr %4, align 4
  ret i32 %5
}

; Function Attrs: mustprogress nounwind uwtable
define linkonce_odr hidden noundef zeroext i1 @_ZNK4llvm3MVTeqERKS0_(ptr noundef nonnull align 2 dereferenceable(2) %0, ptr noundef nonnull align 2 dereferenceable(2) %1) #0 comdat align 2 {
  %3 = alloca ptr, align 8
  %4 = alloca ptr, align 8
  store ptr %0, ptr %3, align 8
  store ptr %1, ptr %4, align 8
  %5 = load ptr, ptr %3, align 8
  %6 = getelementptr inbounds nuw %"class.llvm::MVT", ptr %5, i32 0, i32 0
  %7 = load i16, ptr %6, align 2
  %8 = zext i16 %7 to i32
  %9 = load ptr, ptr %4, align 8
  %10 = getelementptr inbounds nuw %"class.llvm::MVT", ptr %9, i32 0, i32 0
  %11 = load i16, ptr %10, align 2
  %12 = zext i16 %11 to i32
  %13 = icmp eq i32 %8, %12
  ret i1 %13
}

; Function Attrs: mustprogress nounwind uwtable
define linkonce_odr hidden noundef zeroext i1 @_ZNK4llvm3MVTleERKS0_(ptr noundef nonnull align 2 dereferenceable(2) %0, ptr noundef nonnull align 2 dereferenceable(2) %1) #0 comdat align 2 {
  %3 = alloca ptr, align 8
  %4 = alloca ptr, align 8
  store ptr %0, ptr %3, align 8
  store ptr %1, ptr %4, align 8
  %5 = load ptr, ptr %3, align 8
  %6 = getelementptr inbounds nuw %"class.llvm::MVT", ptr %5, i32 0, i32 0
  %7 = load i16, ptr %6, align 2
  %8 = zext i16 %7 to i32
  %9 = load ptr, ptr %4, align 8
  %10 = getelementptr inbounds nuw %"class.llvm::MVT", ptr %9, i32 0, i32 0
  %11 = load i16, ptr %10, align 2
  %12 = zext i16 %11 to i32
  %13 = icmp sle i32 %8, %12
  ret i1 %13
}

; Function Attrs: mustprogress nounwind uwtable
define linkonce_odr hidden noundef zeroext i1 @_ZNK4llvm3MVTgeERKS0_(ptr noundef nonnull align 2 dereferenceable(2) %0, ptr noundef nonnull align 2 dereferenceable(2) %1) #0 comdat align 2 {
  %3 = alloca ptr, align 8
  %4 = alloca ptr, align 8
  store ptr %0, ptr %3, align 8
  store ptr %1, ptr %4, align 8
  %5 = load ptr, ptr %3, align 8
  %6 = getelementptr inbounds nuw %"class.llvm::MVT", ptr %5, i32 0, i32 0
  %7 = load i16, ptr %6, align 2
  %8 = zext i16 %7 to i32
  %9 = load ptr, ptr %4, align 8
  %10 = getelementptr inbounds nuw %"class.llvm::MVT", ptr %9, i32 0, i32 0
  %11 = load i16, ptr %10, align 2
  %12 = zext i16 %11 to i32
  %13 = icmp sge i32 %8, %12
  ret i1 %13
}

; Function Attrs: mustprogress nounwind uwtable
define linkonce_odr hidden void @_ZN4llvm3MVTC2ENS0_15SimpleValueTypeE(ptr noundef nonnull align 2 dereferenceable(2) %0, i16 noundef zeroext %1) unnamed_addr #0 comdat align 2 {
  %3 = alloca ptr, align 8
  %4 = alloca i16, align 2
  store ptr %0, ptr %3, align 8
  store i16 %1, ptr %4, align 2
  %5 = load ptr, ptr %3, align 8
  %6 = getelementptr inbounds nuw %"class.llvm::MVT", ptr %5, i32 0, i32 0
  %7 = load i16, ptr %4, align 2
  store i16 %7, ptr %6, align 2
  ret void
}

; Function Attrs: mustprogress nounwind uwtable
define internal noundef i64 @_ZN4llvm10AArch64_AML22encodeLogicalImmediateEmj(i64 noundef %0, i32 noundef %1) #0 {
  %3 = alloca i64, align 8
  %4 = alloca i32, align 4
  %5 = alloca i64, align 8
  %6 = alloca i8, align 1
  store i64 %0, ptr %3, align 8
  store i32 %1, ptr %4, align 4
  store i64 0, ptr %5, align 8
  %7 = load i64, ptr %3, align 8
  %8 = load i32, ptr %4, align 4
  %9 = call noundef zeroext i1 @_ZN4llvm10AArch64_AML23processLogicalImmediateEmjRm(i64 noundef %7, i32 noundef %8, ptr noundef nonnull align 8 dereferenceable(8) %5)
  %10 = zext i1 %9 to i8
  store i8 %10, ptr %6, align 1
  %11 = load i64, ptr %5, align 8
  ret i64 %11
}

; Function Attrs: mustprogress nounwind uwtable
define internal noundef zeroext i1 @_ZN4llvm10AArch64_AML18isLogicalImmediateEmj(i64 noundef %0, i32 noundef %1) #0 {
  %3 = alloca i64, align 8
  %4 = alloca i32, align 4
  %5 = alloca i64, align 8
  store i64 %0, ptr %3, align 8
  store i32 %1, ptr %4, align 4
  %6 = load i64, ptr %3, align 8
  %7 = load i32, ptr %4, align 4
  %8 = call noundef zeroext i1 @_ZN4llvm10AArch64_AML23processLogicalImmediateEmjRm(i64 noundef %6, i32 noundef %7, ptr noundef nonnull align 8 dereferenceable(8) %5)
  ret i1 %8
}

; Function Attrs: mustprogress nounwind uwtable
define internal noundef i32 @_ZN12_GLOBAL__N_115AArch64FastISel16emitLogicalOp_riEjN4llvm3MVTEjm(ptr noundef nonnull align 8 dereferenceable(192) %0, i32 noundef %1, i16 %2, i32 noundef %3, i64 noundef %4) #0 align 2 {
  %6 = alloca i32, align 4
  %7 = alloca %"class.llvm::MVT", align 2
  %8 = alloca ptr, align 8
  %9 = alloca i32, align 4
  %10 = alloca i32, align 4
  %11 = alloca i64, align 8
  %12 = alloca ptr, align 8
  %13 = alloca i32, align 4
  %14 = alloca i32, align 4
  %15 = alloca i32, align 4
  %16 = alloca %"class.llvm::Register", align 4
  %17 = alloca %"class.llvm::MVT", align 2
  %18 = alloca %"class.llvm::MVT", align 2
  %19 = alloca i64, align 8
  %20 = alloca %"class.llvm::MVT", align 2
  %21 = alloca %"class.llvm::Register", align 4
  %22 = alloca %"class.llvm::MVT", align 2
  %23 = getelementptr inbounds nuw %"class.llvm::MVT", ptr %7, i32 0, i32 0
  store i16 %2, ptr %23, align 2
  store ptr %0, ptr %8, align 8
  store i32 %1, ptr %9, align 4
  store i32 %3, ptr %10, align 4
  store i64 %4, ptr %11, align 8
  %24 = load ptr, ptr %8, align 8
  %25 = getelementptr inbounds nuw %"class.llvm::MVT", ptr %7, i32 0, i32 0
  %26 = load i16, ptr %25, align 2
  %27 = zext i16 %26 to i32
  switch i32 %27, label %28 [
    i32 2, label %29
    i32 5, label %29
    i32 6, label %29
    i32 7, label %29
    i32 8, label %37
  ]

28:                                               ; preds = %5
  store i32 0, ptr %6, align 4
  br label %77

29:                                               ; preds = %5, %5, %5, %5
  %30 = load i32, ptr %9, align 4
  %31 = sub i32 %30, 185
  store i32 %31, ptr %15, align 4
  %32 = load i32, ptr %15, align 4
  %33 = zext i32 %32 to i64
  %34 = getelementptr inbounds [3 x [2 x i32]], ptr @_ZZN12_GLOBAL__N_115AArch64FastISel16emitLogicalOp_riEjN4llvm3MVTEjmE8OpcTable, i64 0, i64 %33
  %35 = getelementptr inbounds [2 x i32], ptr %34, i64 0, i64 0
  %36 = load i32, ptr %35, align 8
  store i32 %36, ptr %13, align 4
  store ptr @_ZN4llvm7AArch6415GPR32spRegClassE, ptr %12, align 8
  store i32 32, ptr %14, align 4
  br label %44

37:                                               ; preds = %5
  %38 = load i32, ptr %9, align 4
  %39 = sub i32 %38, 185
  %40 = zext i32 %39 to i64
  %41 = getelementptr inbounds [3 x [2 x i32]], ptr @_ZZN12_GLOBAL__N_115AArch64FastISel16emitLogicalOp_riEjN4llvm3MVTEjmE8OpcTable, i64 0, i64 %40
  %42 = getelementptr inbounds [2 x i32], ptr %41, i64 0, i64 1
  %43 = load i32, ptr %42, align 4
  store i32 %43, ptr %13, align 4
  store ptr @_ZN4llvm7AArch6415GPR64spRegClassE, ptr %12, align 8
  store i32 64, ptr %14, align 4
  br label %44

44:                                               ; preds = %37, %29
  %45 = load i64, ptr %11, align 8
  %46 = load i32, ptr %14, align 4
  %47 = call noundef zeroext i1 @_ZN4llvm10AArch64_AML18isLogicalImmediateEmj(i64 noundef %45, i32 noundef %46)
  br i1 %47, label %49, label %48

48:                                               ; preds = %44
  store i32 0, ptr %6, align 4
  br label %77

49:                                               ; preds = %44
  %50 = load i32, ptr %13, align 4
  %51 = load ptr, ptr %12, align 8
  %52 = load i32, ptr %10, align 4
  %53 = load i64, ptr %11, align 8
  %54 = load i32, ptr %14, align 4
  %55 = call noundef i64 @_ZN4llvm10AArch64_AML22encodeLogicalImmediateEmj(i64 noundef %53, i32 noundef %54)
  %56 = call i32 @_ZN4llvm8FastISel15fastEmitInst_riEjPKNS_19TargetRegisterClassEjm(ptr noundef nonnull align 8 dereferenceable(176) %24, i32 noundef %50, ptr noundef %51, i32 noundef %52, i64 noundef %55)
  %57 = getelementptr inbounds nuw %"class.llvm::Register", ptr %16, i32 0, i32 0
  store i32 %56, ptr %57, align 4
  call void @_ZN4llvm3MVTC2ENS0_15SimpleValueTypeE(ptr noundef nonnull align 2 dereferenceable(2) %17, i16 noundef zeroext 5)
  %58 = call noundef zeroext i1 @_ZNK4llvm3MVTgeERKS0_(ptr noundef nonnull align 2 dereferenceable(2) %7, ptr noundef nonnull align 2 dereferenceable(2) %17)
  br i1 %58, label %59, label %64

59:                                               ; preds = %49
  call void @_ZN4llvm3MVTC2ENS0_15SimpleValueTypeE(ptr noundef nonnull align 2 dereferenceable(2) %18, i16 noundef zeroext 6)
  %60 = call noundef zeroext i1 @_ZNK4llvm3MVTleERKS0_(ptr noundef nonnull align 2 dereferenceable(2) %7, ptr noundef nonnull align 2 dereferenceable(2) %18)
  br i1 %60, label %61, label %64

61:                                               ; preds = %59
  %62 = load i32, ptr %9, align 4
  %63 = icmp ne i32 %62, 185
  br label %64

64:                                               ; preds = %61, %59, %49
  %65 = phi i1 [ false, %59 ], [ false, %49 ], [ %63, %61 ]
  br i1 %65, label %66, label %75

66:                                               ; preds = %64
  call void @_ZN4llvm3MVTC2ENS0_15SimpleValueTypeE(ptr noundef nonnull align 2 dereferenceable(2) %20, i16 noundef zeroext 5)
  %67 = call noundef zeroext i1 @_ZNK4llvm3MVTeqERKS0_(ptr noundef nonnull align 2 dereferenceable(2) %7, ptr noundef nonnull align 2 dereferenceable(2) %20)
  %68 = select i1 %67, i32 255, i32 65535
  %69 = sext i32 %68 to i64
  store i64 %69, ptr %19, align 8
  call void @_ZN4llvm3MVTC2ENS0_15SimpleValueTypeE(ptr noundef nonnull align 2 dereferenceable(2) %22, i16 noundef zeroext 7)
  %70 = call noundef i32 @_ZNK4llvm8RegistercvjEv(ptr noundef nonnull align 4 dereferenceable(4) %16)
  %71 = load i64, ptr %19, align 8
  %72 = getelementptr inbounds nuw %"class.llvm::MVT", ptr %22, i32 0, i32 0
  %73 = load i16, ptr %72, align 2
  %74 = call noundef i32 @_ZN12_GLOBAL__N_115AArch64FastISel10emitAnd_riEN4llvm3MVTEjm(ptr noundef nonnull align 8 dereferenceable(192) %24, i16 %73, i32 noundef %70, i64 noundef %71)
  call void @_ZN4llvm8RegisterC2Ej(ptr noundef nonnull align 4 dereferenceable(4) %21, i32 noundef %74)
  call void @llvm.memcpy.p0.p0.i64(ptr align 4 %16, ptr align 4 %21, i64 4, i1 false)
  br label %75

75:                                               ; preds = %66, %64
  %76 = call noundef i32 @_ZNK4llvm8RegistercvjEv(ptr noundef nonnull align 4 dereferenceable(4) %16)
  store i32 %76, ptr %6, align 4
  br label %77

77:                                               ; preds = %75, %48, %28
  %78 = load i32, ptr %6, align 4
  ret i32 %78
}