; Function Attrs: mustprogress nounwind uwtable
define internal fastcc noundef i32 @_ZN12_GLOBAL__N_115AArch64FastISel16emitLogicalOp_riEjN4llvm3MVTEjm(ptr noundef nonnull align 8 dereferenceable(192) %0, i32 noundef range(i32 185, 188) %1, i16 %2, i32 noundef %3, i64 noundef %4) unnamed_addr #0 align 2 {
  %6 = alloca i64, align 8
  %7 = alloca i64, align 8
  br label %tailrecurse

tailrecurse:                                      ; preds = %50, %5
  %.tr40 = phi i32 [ %1, %5 ], [ 185, %50 ]
  %.tr41 = phi i16 [ %2, %5 ], [ 7, %50 ]
  %.tr42 = phi i32 [ %3, %5 ], [ %45, %50 ]
  %.tr43 = phi i64 [ %4, %5 ], [ %52, %50 ]
  switch i16 %.tr41, label %.critedge [
    i16 2, label %_ZN4llvm10AArch64_AML23processLogicalImmediateEmjRm.exit
    i16 5, label %_ZN4llvm10AArch64_AML23processLogicalImmediateEmjRm.exit
    i16 6, label %_ZN4llvm10AArch64_AML23processLogicalImmediateEmjRm.exit
    i16 7, label %_ZN4llvm10AArch64_AML23processLogicalImmediateEmjRm.exit
    i16 8, label %.split
  ]

.split:                                           ; preds = %tailrecurse
  %8 = add nsw i32 %.tr40, -185
  %9 = zext nneg i32 %8 to i64
  %10 = getelementptr inbounds nuw [3 x [2 x i32]], ptr @_ZZN12_GLOBAL__N_115AArch64FastISel16emitLogicalOp_riEjN4llvm3MVTEjmE8OpcTable, i64 0, i64 %9, i64 1
  %11 = load i32, ptr %10, align 4
  %12 = add i64 %.tr43, 1
  %or.cond.i = icmp ult i64 %12, 2
  br i1 %or.cond.i, label %.critedge, label %.preheader

.preheader:                                       ; preds = %.split, %21
  %.044.i = phi i32 [ %13, %21 ], [ 64, %.split ]
  %13 = lshr i32 %.044.i, 1
  %14 = zext nneg i32 %13 to i64
  %notmask.i = shl nsw i64 -1, %14
  %15 = xor i64 %notmask.i, -1
  %16 = lshr i64 %.tr43, %14
  %17 = xor i64 %16, %.tr43
  %18 = and i64 %17, %15
  %.not52.i = icmp eq i64 %18, 0
  br i1 %.not52.i, label %21, label %19

19:                                               ; preds = %.preheader
  %20 = and i32 %.044.i, 126
  br label %.loopexit.i

21:                                               ; preds = %.preheader
  %22 = icmp samesign ugt i32 %.044.i, 5
  br i1 %22, label %.preheader, label %.loopexit.i, !llvm.loop !362

.loopexit.i:                                      ; preds = %21, %19
  %.1.i = phi i32 [ %20, %19 ], [ %13, %21 ]
  %23 = sub nsw i32 64, %.1.i
  %24 = zext nneg i32 %23 to i64
  %25 = lshr i64 -1, %24
  %26 = and i64 %25, %.tr43
  %.not.i.i = icmp eq i64 %26, 0
  br i1 %.not.i.i, label %_ZN4llvm16isShiftedMask_64Em.exit.thread.i, label %_ZN4llvm16isShiftedMask_64Em.exit.i

_ZN4llvm16isShiftedMask_64Em.exit.i:              ; preds = %.loopexit.i
  %27 = add i64 %26, -1
  %28 = or i64 %27, %26
  %29 = add i64 %28, 1
  %30 = and i64 %29, %28
  %31 = icmp eq i64 %30, 0
  br i1 %31, label %_ZN4llvm10AArch64_AML23processLogicalImmediateEmjRm.exit.thread32, label %_ZN4llvm16isShiftedMask_64Em.exit.thread.i

_ZN4llvm16isShiftedMask_64Em.exit.thread.i:       ; preds = %_ZN4llvm16isShiftedMask_64Em.exit.i, %.loopexit.i
  %.not55.i = xor i64 %.tr43, -1
  %32 = and i64 %25, %.not55.i
  %.not.i53.i = icmp eq i64 %32, 0
  br i1 %.not.i53.i, label %.critedge, label %_ZN4llvm16isShiftedMask_64Em.exit54.i

_ZN4llvm16isShiftedMask_64Em.exit54.i:            ; preds = %_ZN4llvm16isShiftedMask_64Em.exit.thread.i
  %33 = add i64 %32, -1
  %34 = or i64 %33, %32
  %35 = add i64 %34, 1
  %36 = and i64 %35, %34
  %37 = icmp eq i64 %36, 0
  br i1 %37, label %_ZN4llvm10AArch64_AML23processLogicalImmediateEmjRm.exit.thread32, label %.critedge

_ZN4llvm10AArch64_AML23processLogicalImmediateEmjRm.exit: ; preds = %tailrecurse, %tailrecurse, %tailrecurse, %tailrecurse
  %38 = add nsw i32 %.tr40, -185
  %39 = zext nneg i32 %38 to i64
  %40 = getelementptr inbounds nuw [3 x [2 x i32]], ptr @_ZZN12_GLOBAL__N_115AArch64FastISel16emitLogicalOp_riEjN4llvm3MVTEjmE8OpcTable, i64 0, i64 %39
  %41 = load i32, ptr %40, align 8
  call void @llvm.lifetime.start.p0(i64 8, ptr nonnull %7)
  %42 = call fastcc noundef zeroext i1 @_ZN4llvm10AArch64_AML23processLogicalImmediateEmjRm(i64 noundef %.tr43, i32 noundef 32, ptr noundef nonnull align 8 dereferenceable(8) %7)
  call void @llvm.lifetime.end.p0(i64 8, ptr nonnull %7)
  br i1 %42, label %_ZN4llvm10AArch64_AML23processLogicalImmediateEmjRm.exit.thread32, label %.critedge

_ZN4llvm10AArch64_AML23processLogicalImmediateEmjRm.exit.thread32: ; preds = %_ZN4llvm16isShiftedMask_64Em.exit.i, %_ZN4llvm16isShiftedMask_64Em.exit54.i, %_ZN4llvm10AArch64_AML23processLogicalImmediateEmjRm.exit
  %.01439 = phi ptr [ @_ZN4llvm7AArch6415GPR32spRegClassE, %_ZN4llvm10AArch64_AML23processLogicalImmediateEmjRm.exit ], [ @_ZN4llvm7AArch6415GPR64spRegClassE, %_ZN4llvm16isShiftedMask_64Em.exit54.i ], [ @_ZN4llvm7AArch6415GPR64spRegClassE, %_ZN4llvm16isShiftedMask_64Em.exit.i ]
  %.01538 = phi i32 [ 32, %_ZN4llvm10AArch64_AML23processLogicalImmediateEmjRm.exit ], [ 64, %_ZN4llvm16isShiftedMask_64Em.exit54.i ], [ 64, %_ZN4llvm16isShiftedMask_64Em.exit.i ]
  %.01637 = phi i32 [ %41, %_ZN4llvm10AArch64_AML23processLogicalImmediateEmjRm.exit ], [ %11, %_ZN4llvm16isShiftedMask_64Em.exit54.i ], [ %11, %_ZN4llvm16isShiftedMask_64Em.exit.i ]
  call void @llvm.lifetime.start.p0(i64 8, ptr nonnull %6)
  store i64 0, ptr %6, align 8
  %43 = call fastcc noundef zeroext i1 @_ZN4llvm10AArch64_AML23processLogicalImmediateEmjRm(i64 noundef %.tr43, i32 noundef range(i32 32, 65) %.01538, ptr noundef nonnull align 8 dereferenceable(8) %6)
  %44 = load i64, ptr %6, align 8
  call void @llvm.lifetime.end.p0(i64 8, ptr nonnull %6)
  %45 = tail call i32 @_ZN4llvm8FastISel15fastEmitInst_riEjPKNS_19TargetRegisterClassEjm(ptr noundef nonnull align 8 dereferenceable(176) %0, i32 noundef %.01637, ptr noundef nonnull %.01439, i32 noundef %.tr42, i64 noundef %44) #21
  %46 = icmp ugt i16 %.tr41, 4
  br i1 %46, label %47, label %.critedge

47:                                               ; preds = %_ZN4llvm10AArch64_AML23processLogicalImmediateEmjRm.exit.thread32
  %48 = icmp ult i16 %.tr41, 7
  %49 = icmp ne i32 %.tr40, 185
  %or.cond = and i1 %49, %48
  br i1 %or.cond, label %50, label %.critedge

50:                                               ; preds = %47
  %51 = icmp eq i16 %.tr41, 5
  %52 = select i1 %51, i64 255, i64 65535
  br label %tailrecurse

.critedge:                                        ; preds = %_ZN4llvm16isShiftedMask_64Em.exit.thread.i, %_ZN4llvm16isShiftedMask_64Em.exit54.i, %.split, %_ZN4llvm10AArch64_AML23processLogicalImmediateEmjRm.exit.thread32, %47, %_ZN4llvm10AArch64_AML23processLogicalImmediateEmjRm.exit, %tailrecurse
  %.0 = phi i32 [ 0, %tailrecurse ], [ 0, %_ZN4llvm10AArch64_AML23processLogicalImmediateEmjRm.exit ], [ %45, %47 ], [ %45, %_ZN4llvm10AArch64_AML23processLogicalImmediateEmjRm.exit.thread32 ], [ 0, %.split ], [ 0, %_ZN4llvm16isShiftedMask_64Em.exit54.i ], [ 0, %_ZN4llvm16isShiftedMask_64Em.exit.thread.i ]
  ret i32 %.0
}